target datalayout = "e-m:e-p270:32:32-p271:32:32-p272:64:64-i64:64-i128:128-f80:128-n8:16:32:64-S128"
target triple = "x86_64-pc-linux-gnu"

%struct.re_guts = type { ptr, ptr, ptr, i32, i32, i32, i32, i64, i64, i64, i32, i32, i32, ptr, i32, i32, i64, i64 }
%struct.smat = type { ptr, i32, ptr, ptr, ptr, ptr, ptr, ptr, i64, i64, i64, i64, i64 }

; Function Attrs: nounwind uwtable
define internal ptr @sslow(ptr noundef %0, ptr noundef %1, ptr noundef %2, i64 noundef %3, i64 noundef %4) #0 {
  %6 = alloca ptr, align 8
  %7 = alloca ptr, align 8
  %8 = alloca ptr, align 8
  %9 = alloca i64, align 8
  %10 = alloca i64, align 8
  %11 = alloca i64, align 8
  %12 = alloca i64, align 8
  %13 = alloca i64, align 8
  %14 = alloca ptr, align 8
  %15 = alloca i32, align 4
  %16 = alloca i32, align 4
  %17 = alloca i32, align 4
  %18 = alloca i32, align 4
  %19 = alloca ptr, align 8
  store ptr %0, ptr %6, align 8
  store ptr %1, ptr %7, align 8
  store ptr %2, ptr %8, align 8
  store i64 %3, ptr %9, align 8
  store i64 %4, ptr %10, align 8
  %20 = load ptr, ptr %6, align 8
  %21 = getelementptr inbounds %struct.smat, ptr %20, i32 0, i32 9
  %22 = load i64, ptr %21, align 8
  store i64 %22, ptr %11, align 8
  %23 = load ptr, ptr %6, align 8
  %24 = getelementptr inbounds %struct.smat, ptr %23, i32 0, i32 12
  %25 = load i64, ptr %24, align 8
  store i64 %25, ptr %12, align 8
  %26 = load ptr, ptr %6, align 8
  %27 = getelementptr inbounds %struct.smat, ptr %26, i32 0, i32 11
  %28 = load i64, ptr %27, align 8
  store i64 %28, ptr %13, align 8
  %29 = load ptr, ptr %7, align 8
  store ptr %29, ptr %14, align 8
  %30 = load ptr, ptr %7, align 8
  %31 = load ptr, ptr %6, align 8
  %32 = getelementptr inbounds %struct.smat, ptr %31, i32 0, i32 3
  %33 = load ptr, ptr %32, align 8
  %34 = icmp eq ptr %30, %33
  br i1 %34, label %47, label %35

35:                                               ; preds = %5
  %36 = load ptr, ptr %7, align 8
  %37 = load ptr, ptr %6, align 8
  %38 = getelementptr inbounds %struct.smat, ptr %37, i32 0, i32 4
  %39 = load ptr, ptr %38, align 8
  %40 = icmp eq ptr %36, %39
  br i1 %40, label %41, label %48

41:                                               ; preds = %35
  %42 = load ptr, ptr %6, align 8
  %43 = getelementptr inbounds %struct.smat, ptr %42, i32 0, i32 1
  %44 = load i32, ptr %43, align 8
  %45 = and i32 %44, 1
  %46 = icmp ne i32 %45, 0
  br i1 %46, label %48, label %47

47:                                               ; preds = %41, %5
  store i32 128, ptr %15, align 4
  br label %53

48:                                               ; preds = %41, %35
  %49 = load ptr, ptr %7, align 8
  %50 = getelementptr inbounds i8, ptr %49, i64 -1
  %51 = load i8, ptr %50, align 1
  %52 = sext i8 %51 to i32
  store i32 %52, ptr %15, align 4
  br label %53

53:                                               ; preds = %48, %47
  store i64 0, ptr %11, align 8
  %54 = load i64, ptr %9, align 8
  %55 = shl i64 1, %54
  %56 = load i64, ptr %11, align 8
  %57 = or i64 %56, %55
  store i64 %57, ptr %11, align 8
  %58 = load ptr, ptr %6, align 8
  %59 = getelementptr inbounds %struct.smat, ptr %58, i32 0, i32 0
  %60 = load ptr, ptr %59, align 8
  %61 = load i64, ptr %9, align 8
  %62 = load i64, ptr %10, align 8
  %63 = load i64, ptr %11, align 8
  %64 = load i64, ptr %11, align 8
  %65 = call i64 @sstep(ptr noundef %60, i64 noundef %61, i64 noundef %62, i64 noundef %63, i32 noundef 132, i64 noundef %64)
  store i64 %65, ptr %11, align 8
  store ptr null, ptr %19, align 8
  br label %66

66:                                               ; preds = %266, %53
  %67 = load i32, ptr %15, align 4
  store i32 %67, ptr %16, align 4
  %68 = load ptr, ptr %14, align 8
  %69 = load ptr, ptr %6, align 8
  %70 = getelementptr inbounds %struct.smat, ptr %69, i32 0, i32 5
  %71 = load ptr, ptr %70, align 8
  %72 = icmp eq ptr %68, %71
  br i1 %72, label %73, label %74

73:                                               ; preds = %66
  br label %78

74:                                               ; preds = %66
  %75 = load ptr, ptr %14, align 8
  %76 = load i8, ptr %75, align 1
  %77 = sext i8 %76 to i32
  br label %78

78:                                               ; preds = %74, %73
  %79 = phi i32 [ 128, %73 ], [ %77, %74 ]
  store i32 %79, ptr %15, align 4
  store i32 0, ptr %17, align 4
  store i32 0, ptr %18, align 4
  %80 = load i32, ptr %16, align 4
  %81 = icmp eq i32 %80, 10
  br i1 %81, label %82, label %90

82:                                               ; preds = %78
  %83 = load ptr, ptr %6, align 8
  %84 = getelementptr inbounds %struct.smat, ptr %83, i32 0, i32 0
  %85 = load ptr, ptr %84, align 8
  %86 = getelementptr inbounds %struct.re_guts, ptr %85, i32 0, i32 6
  %87 = load i32, ptr %86, align 4
  %88 = and i32 %87, 8
  %89 = icmp ne i32 %88, 0
  br i1 %89, label %99, label %90

90:                                               ; preds = %82, %78
  %91 = load i32, ptr %16, align 4
  %92 = icmp eq i32 %91, 128
  br i1 %92, label %93, label %105

93:                                               ; preds = %90
  %94 = load ptr, ptr %6, align 8
  %95 = getelementptr inbounds %struct.smat, ptr %94, i32 0, i32 1
  %96 = load i32, ptr %95, align 8
  %97 = and i32 %96, 1
  %98 = icmp ne i32 %97, 0
  br i1 %98, label %105, label %99

99:                                               ; preds = %93, %82
  store i32 129, ptr %17, align 4
  %100 = load ptr, ptr %6, align 8
  %101 = getelementptr inbounds %struct.smat, ptr %100, i32 0, i32 0
  %102 = load ptr, ptr %101, align 8
  %103 = getelementptr inbounds %struct.re_guts, ptr %102, i32 0, i32 11
  %104 = load i32, ptr %103, align 4
  store i32 %104, ptr %18, align 4
  br label %105

105:                                              ; preds = %99, %93, %90
  %106 = load i32, ptr %15, align 4
  %107 = icmp eq i32 %106, 10
  br i1 %107, label %108, label %116

108:                                              ; preds = %105
  %109 = load ptr, ptr %6, align 8
  %110 = getelementptr inbounds %struct.smat, ptr %109, i32 0, i32 0
  %111 = load ptr, ptr %110, align 8
  %112 = getelementptr inbounds %struct.re_guts, ptr %111, i32 0, i32 6
  %113 = load i32, ptr %112, align 4
  %114 = and i32 %113, 8
  %115 = icmp ne i32 %114, 0
  br i1 %115, label %125, label %116

116:                                              ; preds = %108, %105
  %117 = load i32, ptr %15, align 4
  %118 = icmp eq i32 %117, 128
  br i1 %118, label %119, label %136

119:                                              ; preds = %116
  %120 = load ptr, ptr %6, align 8
  %121 = getelementptr inbounds %struct.smat, ptr %120, i32 0, i32 1
  %122 = load i32, ptr %121, align 8
  %123 = and i32 %122, 2
  %124 = icmp ne i32 %123, 0
  br i1 %124, label %136, label %125

125:                                              ; preds = %119, %108
  %126 = load i32, ptr %17, align 4
  %127 = icmp eq i32 %126, 129
  %128 = select i1 %127, i32 131, i32 130
  store i32 %128, ptr %17, align 4
  %129 = load ptr, ptr %6, align 8
  %130 = getelementptr inbounds %struct.smat, ptr %129, i32 0, i32 0
  %131 = load ptr, ptr %130, align 8
  %132 = getelementptr inbounds %struct.re_guts, ptr %131, i32 0, i32 12
  %133 = load i32, ptr %132, align 8
  %134 = load i32, ptr %18, align 4
  %135 = add nsw i32 %134, %133
  store i32 %135, ptr %18, align 4
  br label %136

136:                                              ; preds = %125, %119, %116
  %137 = load i32, ptr %18, align 4
  %138 = icmp ne i32 %137, 0
  br i1 %138, label %139, label %157

139:                                              ; preds = %136
  br label %140

140:                                              ; preds = %153, %139
  %141 = load i32, ptr %18, align 4
  %142 = icmp sgt i32 %141, 0
  br i1 %142, label %143, label %156

143:                                              ; preds = %140
  %144 = load ptr, ptr %6, align 8
  %145 = getelementptr inbounds %struct.smat, ptr %144, i32 0, i32 0
  %146 = load ptr, ptr %145, align 8
  %147 = load i64, ptr %9, align 8
  %148 = load i64, ptr %10, align 8
  %149 = load i64, ptr %11, align 8
  %150 = load i32, ptr %17, align 4
  %151 = load i64, ptr %11, align 8
  %152 = call i64 @sstep(ptr noundef %146, i64 noundef %147, i64 noundef %148, i64 noundef %149, i32 noundef %150, i64 noundef %151)
  store i64 %152, ptr %11, align 8
  br label %153

153:                                              ; preds = %143
  %154 = load i32, ptr %18, align 4
  %155 = add nsw i32 %154, -1
  store i32 %155, ptr %18, align 4
  br label %140

156:                                              ; preds = %140
  br label %157

157:                                              ; preds = %156, %136
  %158 = load i32, ptr %17, align 4
  %159 = icmp eq i32 %158, 129
  br i1 %159, label %177, label %160

160:                                              ; preds = %157
  %161 = load i32, ptr %16, align 4
  %162 = icmp ne i32 %161, 128
  br i1 %162, label %163, label %195

163:                                              ; preds = %160
  %164 = call ptr @__ctype_b_loc() #9
  %165 = load ptr, ptr %164, align 8
  %166 = load i32, ptr %16, align 4
  %167 = and i32 %166, 255
  %168 = sext i32 %167 to i64
  %169 = getelementptr inbounds i16, ptr %165, i64 %168
  %170 = load i16, ptr %169, align 2
  %171 = zext i16 %170 to i32
  %172 = and i32 %171, 8
  %173 = icmp ne i32 %172, 0
  br i1 %173, label %195, label %174

174:                                              ; preds = %163
  %175 = load i32, ptr %16, align 4
  %176 = icmp eq i32 %175, 95
  br i1 %176, label %195, label %177

177:                                              ; preds = %174, %157
  %178 = load i32, ptr %15, align 4
  %179 = icmp ne i32 %178, 128
  br i1 %179, label %180, label %195

180:                                              ; preds = %177
  %181 = call ptr @__ctype_b_loc() #9
  %182 = load ptr, ptr %181, align 8
  %183 = load i32, ptr %15, align 4
  %184 = and i32 %183, 255
  %185 = sext i32 %184 to i64
  %186 = getelementptr inbounds i16, ptr %182, i64 %185
  %187 = load i16, ptr %186, align 2
  %188 = zext i16 %187 to i32
  %189 = and i32 %188, 8
  %190 = icmp ne i32 %189, 0
  br i1 %190, label %194, label %191

191:                                              ; preds = %180
  %192 = load i32, ptr %15, align 4
  %193 = icmp eq i32 %192, 95
  br i1 %193, label %194, label %195

194:                                              ; preds = %191, %180
  store i32 133, ptr %17, align 4
  br label %195

195:                                              ; preds = %194, %191, %177, %174, %163, %160
  %196 = load i32, ptr %16, align 4
  %197 = icmp ne i32 %196, 128
  br i1 %197, label %198, label %233

198:                                              ; preds = %195
  %199 = call ptr @__ctype_b_loc() #9
  %200 = load ptr, ptr %199, align 8
  %201 = load i32, ptr %16, align 4
  %202 = and i32 %201, 255
  %203 = sext i32 %202 to i64
  %204 = getelementptr inbounds i16, ptr %200, i64 %203
  %205 = load i16, ptr %204, align 2
  %206 = zext i16 %205 to i32
  %207 = and i32 %206, 8
  %208 = icmp ne i32 %207, 0
  br i1 %208, label %212, label %209

209:                                              ; preds = %198
  %210 = load i32, ptr %16, align 4
  %211 = icmp eq i32 %210, 95
  br i1 %211, label %212, label %233

212:                                              ; preds = %209, %198
  %213 = load i32, ptr %17, align 4
  %214 = icmp eq i32 %213, 130
  br i1 %214, label %232, label %215

215:                                              ; preds = %212
  %216 = load i32, ptr %15, align 4
  %217 = icmp ne i32 %216, 128
  br i1 %217, label %218, label %233

218:                                              ; preds = %215
  %219 = call ptr @__ctype_b_loc() #9
  %220 = load ptr, ptr %219, align 8
  %221 = load i32, ptr %15, align 4
  %222 = and i32 %221, 255
  %223 = sext i32 %222 to i64
  %224 = getelementptr inbounds i16, ptr %220, i64 %223
  %225 = load i16, ptr %224, align 2
  %226 = zext i16 %225 to i32
  %227 = and i32 %226, 8
  %228 = icmp ne i32 %227, 0
  br i1 %228, label %233, label %229

229:                                              ; preds = %218
  %230 = load i32, ptr %15, align 4
  %231 = icmp eq i32 %230, 95
  br i1 %231, label %233, label %232

232:                                              ; preds = %229, %212
  store i32 134, ptr %17, align 4
  br label %233

233:                                              ; preds = %232, %229, %218, %215, %209, %195
  %234 = load i32, ptr %17, align 4
  %235 = icmp eq i32 %234, 133
  br i1 %235, label %239, label %236

236:                                              ; preds = %233
  %237 = load i32, ptr %17, align 4
  %238 = icmp eq i32 %237, 134
  br i1 %238, label %239, label %249

239:                                              ; preds = %236, %233
  %240 = load ptr, ptr %6, align 8
  %241 = getelementptr inbounds %struct.smat, ptr %240, i32 0, i32 0
  %242 = load ptr, ptr %241, align 8
  %243 = load i64, ptr %9, align 8
  %244 = load i64, ptr %10, align 8
  %245 = load i64, ptr %11, align 8
  %246 = load i32, ptr %17, align 4
  %247 = load i64, ptr %11, align 8
  %248 = call i64 @sstep(ptr noundef %242, i64 noundef %243, i64 noundef %244, i64 noundef %245, i32 noundef %246, i64 noundef %247)
  store i64 %248, ptr %11, align 8
  br label %249

249:                                              ; preds = %239, %236
  %250 = load i64, ptr %11, align 8
  %251 = load i64, ptr %10, align 8
  %252 = shl i64 1, %251
  %253 = and i64 %250, %252
  %254 = icmp ne i64 %253, 0
  br i1 %254, label %255, label %257

255:                                              ; preds = %249
  %256 = load ptr, ptr %14, align 8
  store ptr %256, ptr %19, align 8
  br label %257

257:                                              ; preds = %255, %249
  %258 = load i64, ptr %11, align 8
  %259 = load i64, ptr %12, align 8
  %260 = icmp eq i64 %258, %259
  br i1 %260, label %265, label %261

261:                                              ; preds = %257
  %262 = load ptr, ptr %14, align 8
  %263 = load ptr, ptr %8, align 8
  %264 = icmp eq ptr %262, %263
  br i1 %264, label %265, label %266

265:                                              ; preds = %261, %257
  br label %280

266:                                              ; preds = %261
  %267 = load i64, ptr %11, align 8
  store i64 %267, ptr %13, align 8
  %268 = load i64, ptr %12, align 8
  store i64 %268, ptr %11, align 8
  %269 = load ptr, ptr %6, align 8
  %270 = getelementptr inbounds %struct.smat, ptr %269, i32 0, i32 0
  %271 = load ptr, ptr %270, align 8
  %272 = load i64, ptr %9, align 8
  %273 = load i64, ptr %10, align 8
  %274 = load i64, ptr %13, align 8
  %275 = load i32, ptr %15, align 4
  %276 = load i64, ptr %11, align 8
  %277 = call i64 @sstep(ptr noundef %271, i64 noundef %272, i64 noundef %273, i64 noundef %274, i32 noundef %275, i64 noundef %276)
  store i64 %277, ptr %11, align 8
  %278 = load ptr, ptr %14, align 8
  %279 = getelementptr inbounds i8, ptr %278, i32 1
  store ptr %279, ptr %14, align 8
  br label %66

280:                                              ; preds = %265
  %281 = load ptr, ptr %19, align 8
  ret ptr %281
}