; Function Attrs: nofree nosync nounwind memory(read, inaccessiblemem: none) uwtable
define internal fastcc ptr @sslow(ptr nocapture noundef readonly %0, ptr noundef readonly %1, ptr noundef readnone %2, i64 noundef %3, i64 noundef %4) unnamed_addr #3 {
  %6 = getelementptr inbounds i8, ptr %0, i64 96
  %7 = load i64, ptr %6, align 8
  %8 = getelementptr inbounds i8, ptr %0, i64 24
  %9 = load ptr, ptr %8, align 8
  %10 = icmp eq ptr %9, %1
  br i1 %10, label %23, label %11

11:                                               ; preds = %5
  %12 = getelementptr inbounds i8, ptr %0, i64 32
  %13 = load ptr, ptr %12, align 8
  %14 = icmp eq ptr %13, %1
  br i1 %14, label %15, label %19

15:                                               ; preds = %11
  %16 = getelementptr inbounds i8, ptr %0, i64 8
  %17 = load i32, ptr %16, align 8
  %18 = and i32 %17, 1
  %.not = icmp eq i32 %18, 0
  br i1 %.not, label %23, label %19

19:                                               ; preds = %15, %11
  %20 = getelementptr inbounds i8, ptr %1, i64 -1
  %21 = load i8, ptr %20, align 1
  %22 = sext i8 %21 to i32
  br label %23

23:                                               ; preds = %5, %15, %19
  %.0109 = phi i32 [ %22, %19 ], [ 128, %15 ], [ 128, %5 ]
  %24 = shl nuw i64 1, %3
  %25 = load ptr, ptr %0, align 8
  %26 = tail call fastcc i64 @sstep(ptr noundef %25, i64 noundef %3, i64 noundef %4, i64 noundef %24, i32 noundef 132, i64 noundef %24)
  %27 = getelementptr inbounds i8, ptr %0, i64 40
  %28 = load ptr, ptr %27, align 8
  %29 = getelementptr inbounds i8, ptr %0, i64 8
  %30 = getelementptr inbounds i8, ptr %25, i64 36
  %31 = getelementptr inbounds i8, ptr %25, i64 68
  %32 = getelementptr inbounds i8, ptr %25, i64 72
  %33 = shl nuw i64 1, %4
  br label %34

34:                                               ; preds = %111, %23
  %.0111 = phi ptr [ %1, %23 ], [ %113, %111 ]
  %.1110 = phi i32 [ %.0109, %23 ], [ %40, %111 ]
  %.0105 = phi i64 [ %26, %23 ], [ %112, %111 ]
  %.0 = phi ptr [ null, %23 ], [ %spec.select126, %111 ]
  %35 = icmp eq ptr %.0111, %28
  br i1 %35, label %39, label %36

36:                                               ; preds = %34
  %37 = load i8, ptr %.0111, align 1
  %38 = sext i8 %37 to i32
  br label %39

39:                                               ; preds = %34, %36
  %40 = phi i32 [ %38, %36 ], [ 128, %34 ]
  switch i32 %.1110, label %49 [
    i32 10, label %41
    i32 128, label %44
  ]

41:                                               ; preds = %39
  %42 = load i32, ptr %30, align 4
  %43 = and i32 %42, 8
  %.not115 = icmp eq i32 %43, 0
  br i1 %.not115, label %49, label %47

44:                                               ; preds = %39
  %45 = load i32, ptr %29, align 8
  %46 = and i32 %45, 1
  %.not116 = icmp eq i32 %46, 0
  br i1 %.not116, label %47, label %49

47:                                               ; preds = %44, %41
  %48 = load i32, ptr %31, align 4
  br label %49

49:                                               ; preds = %41, %39, %47, %44
  %50 = phi i32 [ 131, %47 ], [ 130, %44 ], [ 130, %39 ], [ 130, %41 ]
  %.0102 = phi i32 [ 129, %47 ], [ 0, %44 ], [ 0, %39 ], [ 0, %41 ]
  %.0100 = phi i32 [ %48, %47 ], [ 0, %44 ], [ 0, %39 ], [ 0, %41 ]
  switch i32 %40, label %60 [
    i32 10, label %51
    i32 128, label %54
  ]

51:                                               ; preds = %49
  %52 = load i32, ptr %30, align 4
  %53 = and i32 %52, 8
  %.not117 = icmp eq i32 %53, 0
  br i1 %.not117, label %60, label %57

54:                                               ; preds = %49
  %55 = load i32, ptr %29, align 8
  %56 = and i32 %55, 2
  %.not118 = icmp eq i32 %56, 0
  br i1 %.not118, label %57, label %60

57:                                               ; preds = %54, %51
  %58 = load i32, ptr %32, align 8
  %59 = add nsw i32 %58, %.0100
  br label %60

60:                                               ; preds = %51, %49, %57, %54
  %.1103 = phi i32 [ %50, %57 ], [ %.0102, %54 ], [ %.0102, %49 ], [ %.0102, %51 ]
  %.1101 = phi i32 [ %59, %57 ], [ %.0100, %54 ], [ %.0100, %49 ], [ %.0100, %51 ]
  %61 = icmp sgt i32 %.1101, 0
  br i1 %61, label %.preheader, label %.loopexit

.preheader:                                       ; preds = %60, %.preheader
  %.1106 = phi i64 [ %62, %.preheader ], [ %.0105, %60 ]
  %.2 = phi i32 [ %63, %.preheader ], [ %.1101, %60 ]
  %62 = tail call fastcc i64 @sstep(ptr noundef %25, i64 noundef %3, i64 noundef %4, i64 noundef %.1106, i32 noundef %.1103, i64 noundef %.1106)
  %63 = add nsw i32 %.2, -1
  %.old17 = icmp ugt i32 %.2, 1
  br i1 %.old17, label %.preheader, label %.loopexit

.loopexit:                                        ; preds = %.preheader, %60
  %.2107 = phi i64 [ %.0105, %60 ], [ %62, %.preheader ]
  %64 = icmp eq i32 %.1103, 129
  br i1 %64, label %77, label %65

65:                                               ; preds = %.loopexit
  %.not119 = icmp eq i32 %.1110, 128
  br i1 %.not119, label %.thread, label %66

66:                                               ; preds = %65
  %67 = tail call ptr @__ctype_b_loc() #15
  %68 = load ptr, ptr %67, align 8
  %69 = and i32 %.1110, 255
  %70 = zext nneg i32 %69 to i64
  %71 = getelementptr inbounds i16, ptr %68, i64 %70
  %72 = load i16, ptr %71, align 2
  %73 = and i16 %72, 8
  %74 = icmp eq i16 %73, 0
  %75 = icmp ne i32 %.1110, 95
  %or.cond.not122 = select i1 %74, i1 %75, i1 false
  %76 = icmp ne i32 %40, 128
  %or.cond3 = select i1 %or.cond.not122, i1 %76, i1 false
  br i1 %or.cond3, label %78, label %.thread129

77:                                               ; preds = %.loopexit
  %.old2.not = icmp eq i32 %40, 128
  br i1 %.old2.not, label %87, label %._crit_edge

._crit_edge:                                      ; preds = %77
  %.pre141 = tail call ptr @__ctype_b_loc() #15
  br label %78

78:                                               ; preds = %._crit_edge, %66
  %.pre-phi142 = phi ptr [ %.pre141, %._crit_edge ], [ %67, %66 ]
  %79 = load ptr, ptr %.pre-phi142, align 8
  %80 = and i32 %40, 255
  %81 = zext nneg i32 %80 to i64
  %82 = getelementptr inbounds i16, ptr %79, i64 %81
  %83 = load i16, ptr %82, align 2
  %84 = and i16 %83, 8
  %85 = icmp ne i16 %84, 0
  %86 = icmp eq i32 %40, 95
  %or.cond6 = select i1 %85, i1 true, i1 %86
  %spec.select = select i1 %or.cond6, i32 133, i32 %.1103
  br label %87

87:                                               ; preds = %78, %77
  %.2104 = phi i32 [ 129, %77 ], [ %spec.select, %78 ]
  %.not123 = icmp eq i32 %.1110, 128
  br i1 %.not123, label %.thread, label %..thread129_crit_edge

..thread129_crit_edge:                            ; preds = %87
  %.pre = tail call ptr @__ctype_b_loc() #15
  %.pre137 = and i32 %.1110, 255
  %.pre139 = zext nneg i32 %.pre137 to i64
  br label %.thread129

.thread129:                                       ; preds = %..thread129_crit_edge, %66
  %.pre-phi140 = phi i64 [ %.pre139, %..thread129_crit_edge ], [ %70, %66 ]
  %.pre-phi = phi ptr [ %.pre, %..thread129_crit_edge ], [ %67, %66 ]
  %.2104132 = phi i32 [ %.2104, %..thread129_crit_edge ], [ %.1103, %66 ]
  %88 = load ptr, ptr %.pre-phi, align 8
  %89 = getelementptr inbounds i16, ptr %88, i64 %.pre-phi140
  %90 = load i16, ptr %89, align 2
  %91 = and i16 %90, 8
  %92 = icmp ne i16 %91, 0
  %93 = icmp eq i32 %.1110, 95
  %or.cond9 = select i1 %92, i1 true, i1 %93
  br i1 %or.cond9, label %94, label %.thread

94:                                               ; preds = %.thread129
  %95 = icmp eq i32 %.2104132, 130
  br i1 %95, label %.thread133, label %96

96:                                               ; preds = %94
  %.not124 = icmp eq i32 %40, 128
  br i1 %.not124, label %.thread, label %97

97:                                               ; preds = %96
  %98 = and i32 %40, 255
  %99 = zext nneg i32 %98 to i64
  %100 = getelementptr inbounds i16, ptr %88, i64 %99
  %101 = load i16, ptr %100, align 2
  %102 = and i16 %101, 8
  %103 = icmp ne i16 %102, 0
  %104 = icmp eq i32 %40, 95
  %or.cond12 = select i1 %103, i1 true, i1 %104
  br i1 %or.cond12, label %.thread, label %.thread133

.thread:                                          ; preds = %65, %.thread129, %97, %96, %87
  %.3 = phi i32 [ %.2104132, %97 ], [ %.2104132, %96 ], [ %.2104132, %.thread129 ], [ %.2104, %87 ], [ %.1103, %65 ]
  %105 = add i32 %.3, -133
  %or.cond15 = icmp ult i32 %105, 2
  br i1 %or.cond15, label %.thread133, label %107

.thread133:                                       ; preds = %97, %94, %.thread
  %.3136 = phi i32 [ %.3, %.thread ], [ 134, %94 ], [ 134, %97 ]
  %106 = tail call fastcc i64 @sstep(ptr noundef %25, i64 noundef %3, i64 noundef %4, i64 noundef %.2107, i32 noundef %.3136, i64 noundef %.2107)
  br label %107

107:                                              ; preds = %.thread, %.thread133
  %.3108 = phi i64 [ %106, %.thread133 ], [ %.2107, %.thread ]
  %108 = and i64 %.3108, %33
  %.not125 = icmp eq i64 %108, 0
  %spec.select126 = select i1 %.not125, ptr %.0, ptr %.0111
  %109 = icmp eq i64 %.3108, %7
  %110 = icmp eq ptr %.0111, %2
  %or.cond = or i1 %110, %109
  br i1 %or.cond, label %114, label %111

111:                                              ; preds = %107
  %112 = tail call fastcc i64 @sstep(ptr noundef %25, i64 noundef %3, i64 noundef %4, i64 noundef %.3108, i32 noundef %40, i64 noundef %7)
  %113 = getelementptr inbounds i8, ptr %.0111, i64 1
  br label %34

114:                                              ; preds = %107
  ret ptr %spec.select126
}